; Function Attrs: nounwind uwtable
define internal void @SDL_PS4EnhancedReportsChanged(ptr noundef captures(none) %0, ptr readnone captures(none) %1, ptr readnone captures(none) %2, ptr noundef %3) #0 {
  %5 = load ptr, ptr %0, align 8
  %6 = getelementptr inbounds nuw i8, ptr %5, i64 84
  %7 = load i8, ptr %6, align 4, !range !5, !noundef !6
  %8 = trunc nuw i8 %7 to i1
  br i1 %8, label %9, label %54

9:                                                ; preds = %4
  %.not = icmp eq ptr %3, null
  br i1 %.not, label %49, label %10

10:                                               ; preds = %9
  %11 = tail call i32 @SDL_strcasecmp_REAL(ptr noundef nonnull %3, ptr noundef nonnull @.str.8) #9
  %12 = icmp eq i32 %11, 0
  br i1 %12, label %13, label %49

13:                                               ; preds = %10
  %14 = getelementptr inbounds nuw i8, ptr %0, i64 30
  %15 = load i8, ptr %14, align 2, !range !5, !noundef !6
  %16 = trunc nuw i8 %15 to i1
  br i1 %16, label %HIDAPI_DriverPS4_SetEnhancedReportHint.exit, label %17

17:                                               ; preds = %13
  store i8 1, ptr %14, align 2
  %18 = getelementptr inbounds nuw i8, ptr %0, i64 22
  %19 = load i8, ptr %18, align 2, !range !5, !noundef !6
  %20 = trunc nuw i8 %19 to i1
  br i1 %20, label %21, label %25

21:                                               ; preds = %17
  %22 = getelementptr inbounds nuw i8, ptr %0, i64 8
  %23 = load ptr, ptr %22, align 8
  tail call void @SDL_PrivateJoystickAddTouchpad(ptr noundef %23, i32 noundef 2) #9
  %24 = getelementptr inbounds nuw i8, ptr %0, i64 33
  store i8 1, ptr %24, align 1
  br label %25

25:                                               ; preds = %21, %17
  %26 = getelementptr inbounds nuw i8, ptr %0, i64 19
  %27 = load i8, ptr %26, align 1, !range !5, !noundef !6
  %28 = trunc nuw i8 %27 to i1
  br i1 %28, label %29, label %40

29:                                               ; preds = %25
  %30 = getelementptr inbounds nuw i8, ptr %0, i64 8
  %31 = load ptr, ptr %30, align 8
  %32 = getelementptr inbounds nuw i8, ptr %0, i64 31
  %33 = load i8, ptr %32, align 1
  %.rhs.trunc.i.i = zext i8 %33 to i16
  %34 = udiv i16 1000, %.rhs.trunc.i.i
  %35 = uitofp nneg i16 %34 to float
  tail call void @SDL_PrivateJoystickAddSensor(ptr noundef %31, i32 noundef 2, float noundef %35) #9
  %36 = load ptr, ptr %30, align 8
  %37 = load i8, ptr %32, align 1
  %.rhs.trunc13.i.i = zext i8 %37 to i16
  %38 = udiv i16 1000, %.rhs.trunc13.i.i
  %39 = uitofp nneg i16 %38 to float
  tail call void @SDL_PrivateJoystickAddSensor(ptr noundef %36, i32 noundef 1, float noundef %39) #9
  br label %40

40:                                               ; preds = %29, %25
  %41 = getelementptr inbounds nuw i8, ptr %0, i64 18
  %42 = load i8, ptr %41, align 2, !range !5, !noundef !6
  %43 = trunc nuw i8 %42 to i1
  br i1 %43, label %44, label %46

44:                                               ; preds = %40
  %45 = getelementptr inbounds nuw i8, ptr %0, i64 34
  store i8 1, ptr %45, align 2
  br label %46

46:                                               ; preds = %44, %40
  %47 = load ptr, ptr %0, align 8
  tail call void @HIDAPI_UpdateDeviceProperties(ptr noundef %47) #9
  br label %HIDAPI_DriverPS4_SetEnhancedReportHint.exit

HIDAPI_DriverPS4_SetEnhancedReportHint.exit:      ; preds = %13, %46
  %48 = getelementptr inbounds nuw i8, ptr %0, i64 24
  store i32 2, ptr %48, align 8
  br label %55

49:                                               ; preds = %10, %9
  %50 = tail call zeroext i1 @SDL_GetStringBoolean(ptr noundef %3, i1 noundef zeroext true) #9
  br i1 %50, label %51, label %52

51:                                               ; preds = %49
  tail call fastcc void @HIDAPI_DriverPS4_SetEnhancedReportHint(ptr noundef nonnull %0, i32 noundef 1)
  br label %55

52:                                               ; preds = %49
  %53 = getelementptr inbounds nuw i8, ptr %0, i64 24
  store i32 0, ptr %53, align 8
  br label %55

54:                                               ; preds = %4
  tail call fastcc void @HIDAPI_DriverPS4_SetEnhancedReportHint(ptr noundef nonnull %0, i32 noundef 1)
  br label %55

55:                                               ; preds = %HIDAPI_DriverPS4_SetEnhancedReportHint.exit, %52, %51, %54
  ret void
}